target datalayout = "e-m:e-p270:32:32-p271:32:32-p272:64:64-i64:64-i128:128-f80:128-n8:16:32:64-S128"
target triple = "x86_64-pc-linux-gnu"

@.str.1 = private unnamed_addr constant [32 x i8] c"../openssl/test/provfetchtest.c\00", align 1
@.str.2 = private unnamed_addr constant [7 x i8] c"libctx\00", align 1
@.str.3 = private unnamed_addr constant [69 x i8] c"OSSL_PROVIDER_add_builtin(libctx, \22dummy-prov\22, dummy_provider_init)\00", align 1
@.str.4 = private unnamed_addr constant [11 x i8] c"dummy-prov\00", align 1
@.str.5 = private unnamed_addr constant [49 x i8] c"nullprov = OSSL_PROVIDER_load(libctx, \22default\22)\00", align 1
@.str.6 = private unnamed_addr constant [8 x i8] c"default\00", align 1
@.str.7 = private unnamed_addr constant [53 x i8] c"dummyprov = OSSL_PROVIDER_load(libctx, \22dummy-prov\22)\00", align 1
@.str.8 = private unnamed_addr constant [6 x i8] c"DUMMY\00", align 1
@.str.9 = private unnamed_addr constant [15 x i8] c"provider=dummy\00", align 1
@.str.10 = private unnamed_addr constant [8 x i8] c"decoder\00", align 1
@.str.11 = private unnamed_addr constant [8 x i8] c"encoder\00", align 1
@.str.12 = private unnamed_addr constant [7 x i8] c"loader\00", align 1
@.str.13 = private unnamed_addr constant [81 x i8] c"RAND_set_DRBG_type(libctx, \22DUMMY\22, query ? \22provider=dummy\22 : NULL, NULL, NULL)\00", align 1
@.str.14 = private unnamed_addr constant [43 x i8] c"RAND_bytes_ex(libctx, buf, sizeof(buf), 0)\00", align 1
@.str.15 = private unnamed_addr constant [2 x i8] c"1\00", align 1

; Function Attrs: nounwind uwtable
define internal i32 @fetch_test(i32 noundef %0) #0 {
  %2 = alloca i32, align 4
  %3 = alloca ptr, align 8
  %4 = alloca ptr, align 8
  %5 = alloca ptr, align 8
  %6 = alloca ptr, align 8
  %7 = alloca ptr, align 8
  %8 = alloca ptr, align 8
  %9 = alloca i32, align 4
  %10 = alloca [32 x i8], align 16
  %11 = alloca i32, align 4
  store i32 %0, ptr %2, align 4, !tbaa !4
  call void @llvm.lifetime.start.p0(i64 8, ptr %3) #3
  %12 = call ptr @OSSL_LIB_CTX_new()
  store ptr %12, ptr %3, align 8, !tbaa !8
  call void @llvm.lifetime.start.p0(i64 8, ptr %4) #3
  store ptr null, ptr %4, align 8, !tbaa !11
  call void @llvm.lifetime.start.p0(i64 8, ptr %5) #3
  store ptr null, ptr %5, align 8, !tbaa !11
  call void @llvm.lifetime.start.p0(i64 8, ptr %6) #3
  store ptr null, ptr %6, align 8, !tbaa !13
  call void @llvm.lifetime.start.p0(i64 8, ptr %7) #3
  store ptr null, ptr %7, align 8, !tbaa !15
  call void @llvm.lifetime.start.p0(i64 8, ptr %8) #3
  store ptr null, ptr %8, align 8, !tbaa !17
  call void @llvm.lifetime.start.p0(i64 4, ptr %9) #3
  store i32 0, ptr %9, align 4, !tbaa !4
  call void @llvm.lifetime.start.p0(i64 32, ptr %10) #3
  call void @llvm.lifetime.start.p0(i64 4, ptr %11) #3
  %13 = load i32, ptr %2, align 4, !tbaa !4
  %14 = icmp sgt i32 %13, 3
  %15 = zext i1 %14 to i32
  store i32 %15, ptr %11, align 4, !tbaa !4
  %16 = load ptr, ptr %3, align 8, !tbaa !8
  %17 = call i32 @test_ptr(ptr noundef @.str.1, i32 noundef 242, ptr noundef @.str.2, ptr noundef %16)
  %18 = icmp ne i32 %17, 0
  br i1 %18, label %20, label %19

19:                                               ; preds = %1
  br label %94

20:                                               ; preds = %1
  %21 = load ptr, ptr %3, align 8, !tbaa !8
  %22 = call i32 @OSSL_PROVIDER_add_builtin(ptr noundef %21, ptr noundef @.str.4, ptr noundef @dummy_provider_init)
  %23 = icmp ne i32 %22, 0
  %24 = zext i1 %23 to i32
  %25 = call i32 @test_true(ptr noundef @.str.1, i32 noundef 246, ptr noundef @.str.3, i32 noundef %24)
  %26 = icmp ne i32 %25, 0
  br i1 %26, label %27, label %37

27:                                               ; preds = %20
  %28 = load ptr, ptr %3, align 8, !tbaa !8
  %29 = call ptr @OSSL_PROVIDER_load(ptr noundef %28, ptr noundef @.str.6)
  store ptr %29, ptr %5, align 8, !tbaa !11
  %30 = call i32 @test_ptr(ptr noundef @.str.1, i32 noundef 247, ptr noundef @.str.5, ptr noundef %29)
  %31 = icmp ne i32 %30, 0
  br i1 %31, label %32, label %37

32:                                               ; preds = %27
  %33 = load ptr, ptr %3, align 8, !tbaa !8
  %34 = call ptr @OSSL_PROVIDER_load(ptr noundef %33, ptr noundef @.str.4)
  store ptr %34, ptr %4, align 8, !tbaa !11
  %35 = call i32 @test_ptr(ptr noundef @.str.1, i32 noundef 248, ptr noundef @.str.7, ptr noundef %34)
  %36 = icmp ne i32 %35, 0
  br i1 %36, label %38, label %37

37:                                               ; preds = %32, %27, %20
  br label %94

38:                                               ; preds = %32
  %39 = load i32, ptr %2, align 4, !tbaa !4
  %40 = srem i32 %39, 4
  switch i32 %40, label %92 [
    i32 0, label %41
    i32 1, label %52
    i32 2, label %63
    i32 3, label %74
  ]

41:                                               ; preds = %38
  %42 = load ptr, ptr %3, align 8, !tbaa !8
  %43 = load i32, ptr %11, align 4, !tbaa !4
  %44 = icmp ne i32 %43, 0
  %45 = select i1 %44, ptr @.str.9, ptr null
  %46 = call ptr @OSSL_DECODER_fetch(ptr noundef %42, ptr noundef @.str.8, ptr noundef %45)
  store ptr %46, ptr %6, align 8, !tbaa !13
  %47 = load ptr, ptr %6, align 8, !tbaa !13
  %48 = call i32 @test_ptr(ptr noundef @.str.1, i32 noundef 255, ptr noundef @.str.10, ptr noundef %47)
  %49 = icmp ne i32 %48, 0
  br i1 %49, label %51, label %50

50:                                               ; preds = %41
  br label %94

51:                                               ; preds = %41
  br label %93

52:                                               ; preds = %38
  %53 = load ptr, ptr %3, align 8, !tbaa !8
  %54 = load i32, ptr %11, align 4, !tbaa !4
  %55 = icmp ne i32 %54, 0
  %56 = select i1 %55, ptr @.str.9, ptr null
  %57 = call ptr @OSSL_ENCODER_fetch(ptr noundef %53, ptr noundef @.str.8, ptr noundef %56)
  store ptr %57, ptr %7, align 8, !tbaa !15
  %58 = load ptr, ptr %7, align 8, !tbaa !15
  %59 = call i32 @test_ptr(ptr noundef @.str.1, i32 noundef 261, ptr noundef @.str.11, ptr noundef %58)
  %60 = icmp ne i32 %59, 0
  br i1 %60, label %62, label %61

61:                                               ; preds = %52
  br label %94

62:                                               ; preds = %52
  br label %93

63:                                               ; preds = %38
  %64 = load ptr, ptr %3, align 8, !tbaa !8
  %65 = load i32, ptr %11, align 4, !tbaa !4
  %66 = icmp ne i32 %65, 0
  %67 = select i1 %66, ptr @.str.9, ptr null
  %68 = call ptr @OSSL_STORE_LOADER_fetch(ptr noundef %64, ptr noundef @.str.8, ptr noundef %67)
  store ptr %68, ptr %8, align 8, !tbaa !17
  %69 = load ptr, ptr %8, align 8, !tbaa !17
  %70 = call i32 @test_ptr(ptr noundef @.str.1, i32 noundef 267, ptr noundef @.str.12, ptr noundef %69)
  %71 = icmp ne i32 %70, 0
  br i1 %71, label %73, label %72

72:                                               ; preds = %63
  br label %94

73:                                               ; preds = %63
  br label %93

74:                                               ; preds = %38
  %75 = load ptr, ptr %3, align 8, !tbaa !8
  %76 = load i32, ptr %11, align 4, !tbaa !4
  %77 = icmp ne i32 %76, 0
  %78 = select i1 %77, ptr @.str.9, ptr null
  %79 = call i32 @RAND_set_DRBG_type(ptr noundef %75, ptr noundef @.str.8, ptr noundef %78, ptr noundef null, ptr noundef null)
  %80 = icmp ne i32 %79, 0
  %81 = zext i1 %80 to i32
  %82 = call i32 @test_true(ptr noundef @.str.1, i32 noundef 273, ptr noundef @.str.13, i32 noundef %81)
  %83 = icmp ne i32 %82, 0
  br i1 %83, label %84, label %90

84:                                               ; preds = %74
  %85 = load ptr, ptr %3, align 8, !tbaa !8
  %86 = getelementptr inbounds [32 x i8], ptr %10, i64 0, i64 0
  %87 = call i32 @RAND_bytes_ex(ptr noundef %85, ptr noundef %86, i64 noundef 32, i32 noundef 0)
  %88 = call i32 @test_int_ge(ptr noundef @.str.1, i32 noundef 274, ptr noundef @.str.14, ptr noundef @.str.15, i32 noundef %87, i32 noundef 1)
  %89 = icmp ne i32 %88, 0
  br i1 %89, label %91, label %90

90:                                               ; preds = %84, %74
  br label %94

91:                                               ; preds = %84
  br label %93

92:                                               ; preds = %38
  br label %94

93:                                               ; preds = %91, %73, %62, %51
  store i32 1, ptr %9, align 4, !tbaa !4
  br label %94

94:                                               ; preds = %93, %92, %90, %72, %61, %50, %37, %19
  %95 = load ptr, ptr %6, align 8, !tbaa !13
  call void @OSSL_DECODER_free(ptr noundef %95)
  %96 = load ptr, ptr %7, align 8, !tbaa !15
  call void @OSSL_ENCODER_free(ptr noundef %96)
  %97 = load ptr, ptr %8, align 8, !tbaa !17
  call void @OSSL_STORE_LOADER_free(ptr noundef %97)
  %98 = load ptr, ptr %4, align 8, !tbaa !11
  %99 = call i32 @OSSL_PROVIDER_unload(ptr noundef %98)
  %100 = load ptr, ptr %5, align 8, !tbaa !11
  %101 = call i32 @OSSL_PROVIDER_unload(ptr noundef %100)
  %102 = load ptr, ptr %3, align 8, !tbaa !8
  call void @OSSL_LIB_CTX_free(ptr noundef %102)
  %103 = load i32, ptr %9, align 4, !tbaa !4
  call void @llvm.lifetime.end.p0(i64 4, ptr %11) #3
  call void @llvm.lifetime.end.p0(i64 32, ptr %10) #3
  call void @llvm.lifetime.end.p0(i64 4, ptr %9) #3
  call void @llvm.lifetime.end.p0(i64 8, ptr %8) #3
  call void @llvm.lifetime.end.p0(i64 8, ptr %7) #3
  call void @llvm.lifetime.end.p0(i64 8, ptr %6) #3
  call void @llvm.lifetime.end.p0(i64 8, ptr %5) #3
  call void @llvm.lifetime.end.p0(i64 8, ptr %4) #3
  call void @llvm.lifetime.end.p0(i64 8, ptr %3) #3
  ret i32 %103
}