; Function Attrs: nounwind uwtable
define internal range(i32 0, 2) i32 @fetch_test(i32 noundef %0) #0 {
  %2 = alloca [32 x i8], align 16
  %3 = tail call ptr @OSSL_LIB_CTX_new() #6
  call void @llvm.lifetime.start.p0(i64 32, ptr nonnull %2) #6
  %4 = icmp sgt i32 %0, 3
  %5 = tail call i32 @test_ptr(ptr noundef nonnull @.str.1, i32 noundef 242, ptr noundef nonnull @.str.2, ptr noundef %3) #6
  %.not = icmp eq i32 %5, 0
  br i1 %.not, label %41, label %6

6:                                                ; preds = %1
  %7 = tail call i32 @OSSL_PROVIDER_add_builtin(ptr noundef %3, ptr noundef nonnull @.str.4, ptr noundef nonnull @dummy_provider_init) #6
  %8 = icmp ne i32 %7, 0
  %9 = zext i1 %8 to i32
  %10 = tail call i32 @test_true(ptr noundef nonnull @.str.1, i32 noundef 246, ptr noundef nonnull @.str.3, i32 noundef %9) #6
  %.not31 = icmp eq i32 %10, 0
  br i1 %.not31, label %41, label %11

11:                                               ; preds = %6
  %12 = tail call ptr @OSSL_PROVIDER_load(ptr noundef %3, ptr noundef nonnull @.str.6) #6
  %13 = tail call i32 @test_ptr(ptr noundef nonnull @.str.1, i32 noundef 247, ptr noundef nonnull @.str.5, ptr noundef %12) #6
  %.not32 = icmp eq i32 %13, 0
  br i1 %.not32, label %41, label %14

14:                                               ; preds = %11
  %15 = tail call ptr @OSSL_PROVIDER_load(ptr noundef %3, ptr noundef nonnull @.str.4) #6
  %16 = tail call i32 @test_ptr(ptr noundef nonnull @.str.1, i32 noundef 248, ptr noundef nonnull @.str.7, ptr noundef %15) #6
  %.not33 = icmp eq i32 %16, 0
  br i1 %.not33, label %41, label %17

17:                                               ; preds = %14
  %18 = srem i32 %0, 4
  switch i32 %18, label %41 [
    i32 0, label %19
    i32 1, label %23
    i32 2, label %27
    i32 3, label %31
  ]

19:                                               ; preds = %17
  %20 = select i1 %4, ptr @.str.9, ptr null
  %21 = tail call ptr @OSSL_DECODER_fetch(ptr noundef %3, ptr noundef nonnull @.str.8, ptr noundef %20) #6
  %22 = tail call i32 @test_ptr(ptr noundef nonnull @.str.1, i32 noundef 255, ptr noundef nonnull @.str.10, ptr noundef %21) #6
  %.not38 = icmp eq i32 %22, 0
  br i1 %.not38, label %41, label %40

23:                                               ; preds = %17
  %24 = select i1 %4, ptr @.str.9, ptr null
  %25 = tail call ptr @OSSL_ENCODER_fetch(ptr noundef %3, ptr noundef nonnull @.str.8, ptr noundef %24) #6
  %26 = tail call i32 @test_ptr(ptr noundef nonnull @.str.1, i32 noundef 261, ptr noundef nonnull @.str.11, ptr noundef %25) #6
  %.not37 = icmp eq i32 %26, 0
  br i1 %.not37, label %41, label %40

27:                                               ; preds = %17
  %28 = select i1 %4, ptr @.str.9, ptr null
  %29 = tail call ptr @OSSL_STORE_LOADER_fetch(ptr noundef %3, ptr noundef nonnull @.str.8, ptr noundef %28) #6
  %30 = tail call i32 @test_ptr(ptr noundef nonnull @.str.1, i32 noundef 267, ptr noundef nonnull @.str.12, ptr noundef %29) #6
  %.not36 = icmp eq i32 %30, 0
  br i1 %.not36, label %41, label %40

31:                                               ; preds = %17
  %32 = select i1 %4, ptr @.str.9, ptr null
  %33 = tail call i32 @RAND_set_DRBG_type(ptr noundef %3, ptr noundef nonnull @.str.8, ptr noundef %32, ptr noundef null, ptr noundef null) #6
  %34 = icmp ne i32 %33, 0
  %35 = zext i1 %34 to i32
  %36 = tail call i32 @test_true(ptr noundef nonnull @.str.1, i32 noundef 273, ptr noundef nonnull @.str.13, i32 noundef %35) #6
  %.not34 = icmp eq i32 %36, 0
  br i1 %.not34, label %41, label %37

37:                                               ; preds = %31
  %38 = call i32 @RAND_bytes_ex(ptr noundef %3, ptr noundef nonnull %2, i64 noundef 32, i32 noundef 0) #6
  %39 = call i32 @test_int_ge(ptr noundef nonnull @.str.1, i32 noundef 274, ptr noundef nonnull @.str.14, ptr noundef nonnull @.str.15, i32 noundef %38, i32 noundef 1) #6
  %.not35 = icmp eq i32 %39, 0
  br i1 %.not35, label %41, label %40

40:                                               ; preds = %37, %27, %23, %19
  %.129 = phi ptr [ null, %37 ], [ null, %27 ], [ null, %23 ], [ %21, %19 ]
  %.127 = phi ptr [ null, %37 ], [ null, %27 ], [ %25, %23 ], [ null, %19 ]
  %.1 = phi ptr [ null, %37 ], [ %29, %27 ], [ null, %23 ], [ null, %19 ]
  br label %41

41:                                               ; preds = %17, %31, %37, %27, %23, %19, %6, %11, %14, %1, %40
  %.030 = phi ptr [ %12, %17 ], [ %12, %40 ], [ %12, %37 ], [ %12, %31 ], [ %12, %27 ], [ %12, %23 ], [ %12, %19 ], [ %12, %14 ], [ %12, %11 ], [ null, %6 ], [ null, %1 ]
  %.028 = phi ptr [ null, %17 ], [ %.129, %40 ], [ null, %37 ], [ null, %31 ], [ null, %27 ], [ null, %23 ], [ %21, %19 ], [ null, %14 ], [ null, %11 ], [ null, %6 ], [ null, %1 ]
  %.026 = phi ptr [ null, %17 ], [ %.127, %40 ], [ null, %37 ], [ null, %31 ], [ null, %27 ], [ %25, %23 ], [ null, %19 ], [ null, %14 ], [ null, %11 ], [ null, %6 ], [ null, %1 ]
  %.025 = phi ptr [ null, %17 ], [ %.1, %40 ], [ null, %37 ], [ null, %31 ], [ %29, %27 ], [ null, %23 ], [ null, %19 ], [ null, %14 ], [ null, %11 ], [ null, %6 ], [ null, %1 ]
  %.024 = phi i32 [ 0, %17 ], [ 1, %40 ], [ 0, %37 ], [ 0, %31 ], [ 0, %27 ], [ 0, %23 ], [ 0, %19 ], [ 0, %14 ], [ 0, %11 ], [ 0, %6 ], [ 0, %1 ]
  %.0 = phi ptr [ %15, %17 ], [ %15, %40 ], [ %15, %37 ], [ %15, %31 ], [ %15, %27 ], [ %15, %23 ], [ %15, %19 ], [ %15, %14 ], [ null, %11 ], [ null, %6 ], [ null, %1 ]
  call void @OSSL_DECODER_free(ptr noundef %.028) #6
  call void @OSSL_ENCODER_free(ptr noundef %.026) #6
  call void @OSSL_STORE_LOADER_free(ptr noundef %.025) #6
  %42 = call i32 @OSSL_PROVIDER_unload(ptr noundef %.0) #6
  %43 = call i32 @OSSL_PROVIDER_unload(ptr noundef %.030) #6
  call void @OSSL_LIB_CTX_free(ptr noundef %3) #6
  call void @llvm.lifetime.end.p0(i64 32, ptr nonnull %2) #6
  ret i32 %.024
}